; Function Attrs: nounwind uwtable
define ptr @l_Lean_Linter_MissingDocs_checkInit(ptr noundef %0, ptr noundef %1, ptr noundef %2, ptr noundef %3) local_unnamed_addr #0 {
  %5 = tail call ptr @l_Lean_Syntax_getArg(ptr noundef %0, ptr noundef nonnull inttoptr (i64 5 to ptr)) #5
  %6 = tail call zeroext i8 @l_Lean_Syntax_isNone(ptr noundef %5) #5
  %7 = icmp eq i8 %6, 0
  br i1 %7, label %8, label %68

8:                                                ; preds = %4
  %9 = tail call ptr @l_Lean_Syntax_getArg(ptr noundef %0, ptr noundef nonnull inttoptr (i64 1 to ptr)) #5
  %10 = tail call zeroext i8 @l_Lean_Linter_MissingDocs_declModifiersPubNoDoc(ptr noundef %9)
  %11 = ptrtoint ptr %9 to i64
  %12 = and i64 %11, 1
  %.not53 = icmp eq i64 %12, 0
  br i1 %.not53, label %13, label %lean_dec.exit38

13:                                               ; preds = %8
  %14 = load i32, ptr %9, align 4, !tbaa !8
  %15 = icmp sgt i32 %14, 1
  br i1 %15, label %16, label %18, !prof !11

16:                                               ; preds = %13
  %17 = add nsw i32 %14, -1
  store i32 %17, ptr %9, align 4, !tbaa !8
  br label %lean_dec.exit38

18:                                               ; preds = %13
  %.not.i = icmp eq i32 %14, 0
  br i1 %.not.i, label %lean_dec.exit38, label %19

19:                                               ; preds = %18
  tail call void @lean_dec_ref_cold(ptr noundef nonnull %9) #5
  br label %lean_dec.exit38

lean_dec.exit38:                                  ; preds = %19, %18, %16, %8
  %20 = icmp eq i8 %10, 0
  br i1 %20, label %21, label %46

21:                                               ; preds = %lean_dec.exit38
  %22 = ptrtoint ptr %5 to i64
  %23 = and i64 %22, 1
  %.not56 = icmp eq i64 %23, 0
  br i1 %.not56, label %24, label %lean_dec.exit37

24:                                               ; preds = %21
  %25 = load i32, ptr %5, align 4, !tbaa !8
  %26 = icmp sgt i32 %25, 1
  br i1 %26, label %27, label %29, !prof !11

27:                                               ; preds = %24
  %28 = add nsw i32 %25, -1
  store i32 %28, ptr %5, align 4, !tbaa !8
  br label %lean_dec.exit37

29:                                               ; preds = %24
  %.not.i39 = icmp eq i32 %25, 0
  br i1 %.not.i39, label %lean_dec.exit37, label %30

30:                                               ; preds = %29
  tail call void @lean_dec_ref_cold(ptr noundef nonnull %5) #5
  br label %lean_dec.exit37

lean_dec.exit37:                                  ; preds = %30, %29, %27, %21
  %31 = ptrtoint ptr %1 to i64
  %32 = and i64 %31, 1
  %.not57 = icmp eq i64 %32, 0
  br i1 %.not57, label %33, label %lean_dec.exit36

33:                                               ; preds = %lean_dec.exit37
  %34 = load i32, ptr %1, align 4, !tbaa !8
  %35 = icmp sgt i32 %34, 1
  br i1 %35, label %36, label %38, !prof !11

36:                                               ; preds = %33
  %37 = add nsw i32 %34, -1
  store i32 %37, ptr %1, align 4, !tbaa !8
  br label %lean_dec.exit36

38:                                               ; preds = %33
  %.not.i41 = icmp eq i32 %34, 0
  br i1 %.not.i41, label %lean_dec.exit36, label %39

39:                                               ; preds = %38
  tail call void @lean_dec_ref_cold(ptr noundef nonnull %1) #5
  br label %lean_dec.exit36

lean_dec.exit36:                                  ; preds = %39, %38, %36, %lean_dec.exit37
  tail call void @lean_inc_heartbeat() #5
  %40 = tail call noalias ptr @mi_malloc_small(i64 noundef 24) #5
  %41 = icmp eq ptr %40, null
  br i1 %41, label %42, label %lean_alloc_ctor.exit

42:                                               ; preds = %lean_dec.exit36
  tail call void @lean_internal_panic_out_of_memory() #6
  unreachable

lean_alloc_ctor.exit:                             ; preds = %lean_dec.exit36
  %43 = getelementptr inbounds nuw i8, ptr %40, i64 4
  store i32 1, ptr %40, align 4, !tbaa !8
  store i32 131096, ptr %43, align 4
  %44 = getelementptr inbounds nuw i8, ptr %40, i64 8
  store ptr inttoptr (i64 1 to ptr), ptr %44, align 8, !tbaa !4
  %45 = getelementptr inbounds nuw i8, ptr %40, i64 16
  store ptr %3, ptr %45, align 8, !tbaa !4
  br label %lean_dec.exit34

46:                                               ; preds = %lean_dec.exit38
  %47 = tail call ptr @l_Lean_Syntax_getArg(ptr noundef %5, ptr noundef nonnull inttoptr (i64 1 to ptr)) #5
  %48 = ptrtoint ptr %5 to i64
  %49 = and i64 %48, 1
  %.not54 = icmp eq i64 %49, 0
  br i1 %.not54, label %50, label %lean_dec.exit35

50:                                               ; preds = %46
  %51 = load i32, ptr %5, align 4, !tbaa !8
  %52 = icmp sgt i32 %51, 1
  br i1 %52, label %53, label %55, !prof !11

53:                                               ; preds = %50
  %54 = add nsw i32 %51, -1
  store i32 %54, ptr %5, align 4, !tbaa !8
  br label %lean_dec.exit35

55:                                               ; preds = %50
  %.not.i43 = icmp eq i32 %51, 0
  br i1 %.not.i43, label %lean_dec.exit35, label %56

56:                                               ; preds = %55
  tail call void @lean_dec_ref_cold(ptr noundef nonnull %5) #5
  br label %lean_dec.exit35

lean_dec.exit35:                                  ; preds = %56, %55, %53, %46
  %57 = load ptr, ptr @l_Lean_Linter_MissingDocs_checkInit___closed__1, align 8, !tbaa !4
  %58 = tail call ptr @l_Lean_Linter_MissingDocs_lintNamed(ptr noundef %47, ptr noundef %57, ptr noundef %1, ptr noundef %2, ptr noundef %3)
  %59 = ptrtoint ptr %47 to i64
  %60 = and i64 %59, 1
  %.not55 = icmp eq i64 %60, 0
  br i1 %.not55, label %61, label %lean_dec.exit34

61:                                               ; preds = %lean_dec.exit35
  %62 = load i32, ptr %47, align 4, !tbaa !8
  %63 = icmp sgt i32 %62, 1
  br i1 %63, label %64, label %66, !prof !11

64:                                               ; preds = %61
  %65 = add nsw i32 %62, -1
  store i32 %65, ptr %47, align 4, !tbaa !8
  br label %lean_dec.exit34

66:                                               ; preds = %61
  %.not.i45 = icmp eq i32 %62, 0
  br i1 %.not.i45, label %lean_dec.exit34, label %67

67:                                               ; preds = %66
  tail call void @lean_dec_ref_cold(ptr noundef nonnull %47) #5
  br label %lean_dec.exit34

68:                                               ; preds = %4
  %69 = ptrtoint ptr %5 to i64
  %70 = and i64 %69, 1
  %.not = icmp eq i64 %70, 0
  br i1 %.not, label %71, label %lean_dec.exit33

71:                                               ; preds = %68
  %72 = load i32, ptr %5, align 4, !tbaa !8
  %73 = icmp sgt i32 %72, 1
  br i1 %73, label %74, label %76, !prof !11

74:                                               ; preds = %71
  %75 = add nsw i32 %72, -1
  store i32 %75, ptr %5, align 4, !tbaa !8
  br label %lean_dec.exit33

76:                                               ; preds = %71
  %.not.i47 = icmp eq i32 %72, 0
  br i1 %.not.i47, label %lean_dec.exit33, label %77

77:                                               ; preds = %76
  tail call void @lean_dec_ref_cold(ptr noundef nonnull %5) #5
  br label %lean_dec.exit33

lean_dec.exit33:                                  ; preds = %77, %76, %74, %68
  %78 = ptrtoint ptr %1 to i64
  %79 = and i64 %78, 1
  %.not52 = icmp eq i64 %79, 0
  br i1 %.not52, label %80, label %lean_dec.exit

80:                                               ; preds = %lean_dec.exit33
  %81 = load i32, ptr %1, align 4, !tbaa !8
  %82 = icmp sgt i32 %81, 1
  br i1 %82, label %83, label %85, !prof !11

83:                                               ; preds = %80
  %84 = add nsw i32 %81, -1
  store i32 %84, ptr %1, align 4, !tbaa !8
  br label %lean_dec.exit

85:                                               ; preds = %80
  %.not.i49 = icmp eq i32 %81, 0
  br i1 %.not.i49, label %lean_dec.exit, label %86

86:                                               ; preds = %85
  tail call void @lean_dec_ref_cold(ptr noundef nonnull %1) #5
  br label %lean_dec.exit

lean_dec.exit:                                    ; preds = %86, %85, %83, %lean_dec.exit33
  tail call void @lean_inc_heartbeat() #5
  %87 = tail call noalias ptr @mi_malloc_small(i64 noundef 24) #5
  %88 = icmp eq ptr %87, null
  br i1 %88, label %89, label %lean_alloc_ctor.exit51

89:                                               ; preds = %lean_dec.exit
  tail call void @lean_internal_panic_out_of_memory() #6
  unreachable

lean_alloc_ctor.exit51:                           ; preds = %lean_dec.exit
  %90 = getelementptr inbounds nuw i8, ptr %87, i64 4
  store i32 1, ptr %87, align 4, !tbaa !8
  store i32 131096, ptr %90, align 4
  %91 = getelementptr inbounds nuw i8, ptr %87, i64 8
  store ptr inttoptr (i64 1 to ptr), ptr %91, align 8, !tbaa !4
  %92 = getelementptr inbounds nuw i8, ptr %87, i64 16
  store ptr %3, ptr %92, align 8, !tbaa !4
  br label %lean_dec.exit34

lean_dec.exit34:                                  ; preds = %lean_dec.exit35, %64, %66, %67, %lean_alloc_ctor.exit, %lean_alloc_ctor.exit51
  %.1 = phi ptr [ %87, %lean_alloc_ctor.exit51 ], [ %40, %lean_alloc_ctor.exit ], [ %58, %67 ], [ %58, %66 ], [ %58, %64 ], [ %58, %lean_dec.exit35 ]
  ret ptr %.1
}